target datalayout = "e-m:e-p270:32:32-p271:32:32-p272:64:64-i64:64-i128:128-f80:128-n8:16:32:64-S128"
target triple = "x86_64-pc-linux-gnu"

%struct.object_id = type { [32 x i8], i32 }
%struct.repository = type { ptr, ptr, ptr, ptr, ptr, %struct.strmap, %struct.strmap, %struct.repo_path_cache, ptr, ptr, ptr, ptr, %struct.repo_settings, ptr, ptr, ptr, ptr, ptr, ptr, i32, i32, i32, ptr, ptr, i32, i32, i8 }
%struct.strmap = type { %struct.hashmap, ptr, i8 }
%struct.hashmap = type { ptr, ptr, ptr, i32, i32, i32, i32, i8 }
%struct.repo_path_cache = type { ptr, ptr, ptr, ptr, ptr, ptr, ptr }
%struct.repo_settings = type { i32, i32, i32, i32, i32, i32, i32, i32, i32, i32, i32, i32, ptr, i32, i32, i32, i32, i32, i32, i32, i64, i64, i64 }

@.str.72 = private unnamed_addr constant [1 x i8] zeroinitializer, align 1
@the_repository = external global ptr, align 8
@git_gettext_enabled = external global i32, align 4
@.str.265 = private unnamed_addr constant [29 x i8] c"Could not parse object '%s'.\00", align 1

; Function Attrs: inlinehint nounwind uwtable
define internal i32 @const_error() #5 {
  ret i32 -1
}

; Function Attrs: inlinehint nounwind uwtable
define internal ptr @_(ptr noundef %0) #5 {
  %2 = alloca ptr, align 8
  %3 = alloca ptr, align 8
  store ptr %0, ptr %3, align 8, !tbaa !11
  %4 = load ptr, ptr %3, align 8, !tbaa !11
  %5 = load i8, ptr %4, align 1, !tbaa !84
  %6 = icmp ne i8 %5, 0
  br i1 %6, label %8, label %7

7:                                                ; preds = %1
  store ptr @.str.72, ptr %2, align 8
  br label %16

8:                                                ; preds = %1
  %9 = load i32, ptr @git_gettext_enabled, align 4, !tbaa !4
  %10 = icmp ne i32 %9, 0
  br i1 %10, label %13, label %11

11:                                               ; preds = %8
  %12 = load ptr, ptr %3, align 8, !tbaa !11
  store ptr %12, ptr %2, align 8
  br label %16

13:                                               ; preds = %8
  %14 = load ptr, ptr %3, align 8, !tbaa !11
  %15 = call ptr @dcgettext(ptr noundef null, ptr noundef %14, i32 noundef 5) #14
  store ptr %15, ptr %2, align 8
  br label %16

16:                                               ; preds = %13, %11, %7
  %17 = load ptr, ptr %2, align 8
  ret ptr %17
}

; Function Attrs: nounwind uwtable
define internal i32 @clean_index(ptr noundef %0, ptr noundef %1) #0 {
  %3 = alloca i32, align 4
  %4 = alloca ptr, align 8
  %5 = alloca ptr, align 8
  %6 = alloca ptr, align 8
  %7 = alloca ptr, align 8
  %8 = alloca ptr, align 8
  %9 = alloca %struct.object_id, align 4
  %10 = alloca i32, align 4
  store ptr %0, ptr %4, align 8, !tbaa !100
  store ptr %1, ptr %5, align 8, !tbaa !100
  call void @llvm.lifetime.start.p0(i64 8, ptr %6) #14
  call void @llvm.lifetime.start.p0(i64 8, ptr %7) #14
  call void @llvm.lifetime.start.p0(i64 8, ptr %8) #14
  call void @llvm.lifetime.start.p0(i64 36, ptr %9) #14
  %11 = load ptr, ptr %4, align 8, !tbaa !100
  %12 = call ptr @parse_tree_indirect(ptr noundef %11)
  store ptr %12, ptr %6, align 8, !tbaa !208
  %13 = load ptr, ptr %6, align 8, !tbaa !208
  %14 = icmp ne ptr %13, null
  br i1 %14, label %21, label %15

15:                                               ; preds = %2
  %16 = call ptr @_(ptr noundef @.str.265)
  %17 = load ptr, ptr %4, align 8, !tbaa !100
  %18 = call ptr @oid_to_hex(ptr noundef %17)
  %19 = call i32 (ptr, ...) @error(ptr noundef %16, ptr noundef %18)
  %20 = call i32 @const_error()
  store i32 %20, ptr %3, align 4
  store i32 1, ptr %10, align 4
  br label %71

21:                                               ; preds = %2
  %22 = load ptr, ptr %5, align 8, !tbaa !100
  %23 = call ptr @parse_tree_indirect(ptr noundef %22)
  store ptr %23, ptr %7, align 8, !tbaa !208
  %24 = load ptr, ptr %7, align 8, !tbaa !208
  %25 = icmp ne ptr %24, null
  br i1 %25, label %32, label %26

26:                                               ; preds = %21
  %27 = call ptr @_(ptr noundef @.str.265)
  %28 = load ptr, ptr %5, align 8, !tbaa !100
  %29 = call ptr @oid_to_hex(ptr noundef %28)
  %30 = call i32 (ptr, ...) @error(ptr noundef %27, ptr noundef %29)
  %31 = call i32 @const_error()
  store i32 %31, ptr %3, align 4
  store i32 1, ptr %10, align 4
  br label %71

32:                                               ; preds = %21
  %33 = load ptr, ptr @the_repository, align 8, !tbaa !13
  %34 = call i32 @repo_read_index_unmerged(ptr noundef %33)
  %35 = load ptr, ptr %6, align 8, !tbaa !208
  %36 = load ptr, ptr %6, align 8, !tbaa !208
  %37 = call i32 @fast_forward_to(ptr noundef %35, ptr noundef %36, i32 noundef 1)
  %38 = icmp ne i32 %37, 0
  br i1 %38, label %39, label %40

39:                                               ; preds = %32
  store i32 -1, ptr %3, align 4
  store i32 1, ptr %10, align 4
  br label %71

40:                                               ; preds = %32
  %41 = load ptr, ptr @the_repository, align 8, !tbaa !13
  %42 = getelementptr inbounds nuw %struct.repository, ptr %41, i32 0, i32 15
  %43 = load ptr, ptr %42, align 8, !tbaa !93
  %44 = load ptr, ptr @the_repository, align 8, !tbaa !13
  %45 = call ptr @repo_get_index_file(ptr noundef %44)
  %46 = call i32 @write_index_as_tree(ptr noundef %9, ptr noundef %43, ptr noundef %45, i32 noundef 0, ptr noundef null)
  %47 = icmp ne i32 %46, 0
  br i1 %47, label %48, label %49

48:                                               ; preds = %40
  store i32 -1, ptr %3, align 4
  store i32 1, ptr %10, align 4
  br label %71

49:                                               ; preds = %40
  %50 = call ptr @parse_tree_indirect(ptr noundef %9)
  store ptr %50, ptr %8, align 8, !tbaa !208
  %51 = load ptr, ptr %8, align 8, !tbaa !208
  %52 = icmp ne ptr %51, null
  br i1 %52, label %58, label %53

53:                                               ; preds = %49
  %54 = call ptr @_(ptr noundef @.str.265)
  %55 = call ptr @oid_to_hex(ptr noundef %9)
  %56 = call i32 (ptr, ...) @error(ptr noundef %54, ptr noundef %55)
  %57 = call i32 @const_error()
  store i32 %57, ptr %3, align 4
  store i32 1, ptr %10, align 4
  br label %71

58:                                               ; preds = %49
  %59 = load ptr, ptr %8, align 8, !tbaa !208
  %60 = load ptr, ptr %7, align 8, !tbaa !208
  %61 = call i32 @fast_forward_to(ptr noundef %59, ptr noundef %60, i32 noundef 0)
  %62 = icmp ne i32 %61, 0
  br i1 %62, label %63, label %64

63:                                               ; preds = %58
  store i32 -1, ptr %3, align 4
  store i32 1, ptr %10, align 4
  br label %71

64:                                               ; preds = %58
  %65 = load ptr, ptr %7, align 8, !tbaa !208
  %66 = call i32 @merge_tree(ptr noundef %65)
  %67 = icmp ne i32 %66, 0
  br i1 %67, label %68, label %69

68:                                               ; preds = %64
  store i32 -1, ptr %3, align 4
  store i32 1, ptr %10, align 4
  br label %71

69:                                               ; preds = %64
  %70 = load ptr, ptr @the_repository, align 8, !tbaa !13
  call void @remove_branch_state(ptr noundef %70, i32 noundef 0)
  store i32 0, ptr %3, align 4
  store i32 1, ptr %10, align 4
  br label %71

71:                                               ; preds = %69, %68, %63, %53, %48, %39, %26, %15
  call void @llvm.lifetime.end.p0(i64 36, ptr %9) #14
  call void @llvm.lifetime.end.p0(i64 8, ptr %8) #14
  call void @llvm.lifetime.end.p0(i64 8, ptr %7) #14
  call void @llvm.lifetime.end.p0(i64 8, ptr %6) #14
  %72 = load i32, ptr %3, align 4
  ret i32 %72
}