; Function Attrs: nounwind uwtable
define internal fastcc range(i32 -1, 1) i32 @clean_index(ptr noundef nonnull %0, ptr noundef nonnull %1) unnamed_addr #0 {
  %3 = alloca %struct.object_id, align 4
  call void @llvm.lifetime.start.p0(i64 36, ptr nonnull %3) #21
  %4 = tail call ptr @parse_tree_indirect(ptr noundef nonnull %0) #21
  %.not = icmp eq ptr %4, null
  br i1 %.not, label %5, label %11

5:                                                ; preds = %2
  %6 = load i32, ptr @git_gettext_enabled, align 4, !tbaa !4
  %.not4.i = icmp eq i32 %6, 0
  br i1 %.not4.i, label %_.exit, label %7

7:                                                ; preds = %5
  %8 = tail call ptr @dcgettext(ptr noundef null, ptr noundef nonnull @.str.265, i32 noundef 5) #21
  br label %_.exit

_.exit:                                           ; preds = %5, %7
  %.0.i = phi ptr [ %8, %7 ], [ @.str.265, %5 ]
  %9 = tail call ptr @oid_to_hex(ptr noundef nonnull %0) #21
  %10 = tail call i32 (ptr, ...) @error(ptr noundef %.0.i, ptr noundef %9) #21
  br label %43

11:                                               ; preds = %2
  %12 = tail call ptr @parse_tree_indirect(ptr noundef nonnull %1) #21
  %.not15 = icmp eq ptr %12, null
  br i1 %.not15, label %13, label %19

13:                                               ; preds = %11
  %14 = load i32, ptr @git_gettext_enabled, align 4, !tbaa !4
  %.not4.i21 = icmp eq i32 %14, 0
  br i1 %.not4.i21, label %_.exit23, label %15

15:                                               ; preds = %13
  %16 = tail call ptr @dcgettext(ptr noundef null, ptr noundef nonnull @.str.265, i32 noundef 5) #21
  br label %_.exit23

_.exit23:                                         ; preds = %13, %15
  %.0.i22 = phi ptr [ %16, %15 ], [ @.str.265, %13 ]
  %17 = tail call ptr @oid_to_hex(ptr noundef nonnull %1) #21
  %18 = tail call i32 (ptr, ...) @error(ptr noundef %.0.i22, ptr noundef %17) #21
  br label %43

19:                                               ; preds = %11
  %20 = load ptr, ptr @the_repository, align 8, !tbaa !21
  %21 = tail call i32 @repo_read_index_unmerged(ptr noundef %20) #21
  %22 = tail call fastcc i32 @fast_forward_to(ptr noundef %4, ptr noundef %4, i32 noundef 1)
  %.not16 = icmp eq i32 %22, 0
  br i1 %.not16, label %23, label %43

23:                                               ; preds = %19
  %24 = load ptr, ptr @the_repository, align 8, !tbaa !21
  %25 = getelementptr inbounds nuw i8, ptr %24, i64 384
  %26 = load ptr, ptr %25, align 8, !tbaa !64
  %27 = tail call ptr @repo_get_index_file(ptr noundef %24) #21
  %28 = call i32 @write_index_as_tree(ptr noundef nonnull %3, ptr noundef %26, ptr noundef %27, i32 noundef 0, ptr noundef null) #21
  %.not17 = icmp eq i32 %28, 0
  br i1 %.not17, label %29, label %43

29:                                               ; preds = %23
  %30 = call ptr @parse_tree_indirect(ptr noundef nonnull %3) #21
  %.not18 = icmp eq ptr %30, null
  br i1 %.not18, label %31, label %37

31:                                               ; preds = %29
  %32 = load i32, ptr @git_gettext_enabled, align 4, !tbaa !4
  %.not4.i24 = icmp eq i32 %32, 0
  br i1 %.not4.i24, label %_.exit26, label %33

33:                                               ; preds = %31
  %34 = call ptr @dcgettext(ptr noundef null, ptr noundef nonnull @.str.265, i32 noundef 5) #21
  br label %_.exit26

_.exit26:                                         ; preds = %31, %33
  %.0.i25 = phi ptr [ %34, %33 ], [ @.str.265, %31 ]
  %35 = call ptr @oid_to_hex(ptr noundef nonnull %3) #21
  %36 = call i32 (ptr, ...) @error(ptr noundef %.0.i25, ptr noundef %35) #21
  br label %43

37:                                               ; preds = %29
  %38 = call fastcc i32 @fast_forward_to(ptr noundef %30, ptr noundef %12, i32 noundef 0)
  %.not19 = icmp eq i32 %38, 0
  br i1 %.not19, label %39, label %43

39:                                               ; preds = %37
  %40 = call fastcc i32 @merge_tree(ptr noundef %12)
  %.not20 = icmp eq i32 %40, 0
  br i1 %.not20, label %41, label %43

41:                                               ; preds = %39
  %42 = load ptr, ptr @the_repository, align 8, !tbaa !21
  call void @remove_branch_state(ptr noundef %42, i32 noundef 0) #21
  br label %43

43:                                               ; preds = %39, %37, %23, %19, %41, %_.exit26, %_.exit23, %_.exit
  %.0 = phi i32 [ 0, %41 ], [ -1, %_.exit26 ], [ -1, %_.exit23 ], [ -1, %_.exit ], [ -1, %19 ], [ -1, %23 ], [ -1, %37 ], [ -1, %39 ]
  call void @llvm.lifetime.end.p0(i64 36, ptr nonnull %3) #21
  ret i32 %.0
}